Certificate:
    Data:
        Version: 3 (0x2)
        Serial Number:
            db:1f:20:4b:52:71:29:56:19:67:da:1b:cf:dd:a5:c7
    Signature Algorithm: sha256WithRSAEncryption
        Issuer: CN=rasvpn
        Validity
            Not Before: Jul 25 12:38:25 2022 GMT
            Not After : Oct 27 12:38:25 2024 GMT
        Subject: CN=rasvpn
        Subject Public Key Info:
            Public Key Algorithm: rsaEncryption
                Public-Key: (2048 bit)
                Modulus:
                    00:d1:ec:e2:3d:36:4b:99:ce:83:ff:6c:29:f6:d5:
                    be:63:ed:12:bc:16:e5:e2:dc:a8:75:55:0f:76:e9:
                    2b:ed:89:33:14:23:a0:cd:54:78:85:04:09:ed:53:
                    7e:74:f6:23:8d:e9:fd:ad:b7:00:3d:61:f3:cd:2e:
                    23:a1:cb:d9:21:1d:ff:98:b3:09:92:84:51:67:13:
                    d5:b6:37:6f:ca:a3:8b:a2:c9:77:0c:b9:28:e3:7a:
                    fc:35:12:65:09:b8:fb:7a:45:d2:16:3e:1b:a5:db:
                    35:cd:ba:5d:b3:73:88:9f:02:63:9d:9f:4a:21:73:
                    6e:c1:7a:99:9e:3b:f8:f4:e8:76:69:74:57:18:01:
                    f2:72:12:94:56:76:f4:c3:69:74:9f:18:8a:d0:f1:
                    ff:a5:ae:3a:3e:97:63:4d:0a:20:2c:59:16:4c:5f:
                    ab:38:25:ce:8a:03:1e:ef:b2:fc:0b:55:91:4b:90:
                    dd:d6:85:db:bd:b8:b2:a9:fc:97:a8:3c:f8:3e:b4:
                    c3:2e:3d:8f:58:b4:d5:ab:9c:26:d5:0b:21:52:b9:
                    28:a0:ff:51:33:80:96:32:9b:ca:b0:e9:e6:ca:b9:
                    cc:06:24:fa:93:b7:74:49:29:3c:dd:d0:17:9e:88:
                    41:ea:1f:66:15:32:8a:2b:58:bf:67:7c:68:7a:d5:
                    97:e1
                Exponent: 65537 (0x10001)
        X509v3 extensions:
            X509v3 Basic Constraints:
                CA:FALSE
            X509v3 Subject Key Identifier:
                9F:C5:1B:23:7C:B6:BF:30:2F:87:F5:43:8A:8C:30:80:A6:8E:04:E9
            X509v3 Authority Key Identifier:
                keyid:13:69:38:B1:4B:4B:4D:12:21:38:12:F6:7F:B6:DA:19:BF:CF:B9:5A
                DirName:/CN=rasvpn
                serial:97:A9:4A:F8:EB:95:9E:68

            X509v3 Extended Key Usage:
                TLS Web Server Authentication
            X509v3 Key Usage:
                Digital Signature, Key Encipherment
            X509v3 Subject Alternative Name:
                DNS:rasvpn
    Signature Algorithm: sha256WithRSAEncryption
         9a:85:45:ff:db:dc:19:a4:08:df:5b:bb:6c:d8:47:e7:61:65:
         e2:9c:75:2b:16:4c:96:8e:46:cf:d5:a7:58:c5:1b:2a:62:db:
         0f:ae:8d:41:95:c8:ed:0f:5a:0b:d3:59:5b:1b:09:69:9f:18:
         76:35:e7:22:3d:2b:03:1b:e5:6e:57:f7:65:9d:ff:87:c7:78:
         48:0f:51:c2:d7:08:56:91:2f:ec:29:f5:a6:ac:1a:14:8b:c6:
         27:b9:87:70:a9:e9:f6:ef:d3:ee:ee:e9:55:d9:69:32:28:23:
         b2:7c:e1:85:9f:e0:b2:3a:d5:db:8b:f6:bc:05:53:4d:86:5f:
         80:cd:89:26:e1:b3:07:d9:31:33:58:84:fe:aa:09:b9:c3:2a:
         a6:eb:dd:9c:41:a9:62:a6:a0:a3:cf:df:04:2a:91:9d:b3:7d:
         dc:a2:63:08:14:96:03:57:04:fe:10:fd:20:40:f0:7f:35:e9:
         97:18:dd:85:b9:03:64:fc:bf:a5:93:2b:d7:09:e2:94:16:2a:
         1e:e4:25:79:a4:3d:0f:2e:13:d2:33:10:a2:8c:24:2e:03:44:
         6f:2d:a9:46:36:de:0a:f3:b2:f0:c9:f0:ef:41:a3:4a:eb:26:
         46:38:d6:44:81:a4:ed:64:2c:6e:16:68:fa:16:c0:9e:5e:e9:
         34:9f:08:f6
-----BEGIN CERTIFICATE-----
MIIDUzCCAjugAwIBAgIRANsfIEtScSlWGWfaG8/dpccwDQYJKoZIhvcNAQELBQAw
ETEPMA0GA1UEAwwGcmFzdnBuMB4XDTIyMDcyNTEyMzgyNVoXDTI0MTAyNzEyMzgy
NVowETEPMA0GA1UEAwwGcmFzdnBuMIIBIjANBgkqhkiG9w0BAQEFAAOCAQ8AMIIB
CgKCAQEA0eziPTZLmc6D/2wp9tW+Y+0SvBbl4tyodVUPdukr7YkzFCOgzVR4hQQJ
7VN+dPYjjen9rbcAPWHzzS4jocvZIR3/mLMJkoRRZxPVtjdvyqOLosl3DLko43r8
NRJlCbj7ekXSFj4bpds1zbpds3OInwJjnZ9KIXNuwXqZnjv49Oh2aXRXGAHychKU
Vnb0w2l0nxiK0PH/pa46PpdjTQogLFkWTF+rOCXOigMe77L8C1WRS5Dd1oXbvbiy
qfyXqDz4PrTDLj2PWLTVq5wm1QshUrkooP9RM4CWMpvKsOnmyrnMBiT6k7d0SSk8
3dAXnohB6h9mFTKKK1i/Z3xoetWX4QIDAQABo4GlMIGiMAkGA1UdEwQCMAAwHQYD
VR0OBBYEFJ/FGyN8tr8wL4f1Q4qMMICmjgTpMEEGA1UdIwQ6MDiAFBNpOLFLS00S
ITgS9n+22hm/z7laoRWkEzARMQ8wDQYDVQQDDAZyYXN2cG6CCQCXqUr465WeaDAT
BgNVHSUEDDAKBggrBgEFBQcDATALBgNVHQ8EBAMCBaAwEQYDVR0RBAowCIIGcmFz
dnBuMA0GCSqGSIb3DQEBCwUAA4IBAQCahUX/29wZpAjfW7ts2EfnYWXinHUrFkyW
jkbP1adYxRsqYtsPro1BlcjtD1oL01lbGwlpnxh2NeciPSsDG+VuV/dlnf+Hx3hI
D1HC1whWkS/sKfWmrBoUi8YnuYdwqen279Pu7ulV2WkyKCOyfOGFn+CyOtXbi/a8
BVNNhl+AzYkm4bMH2TEzWIT+qgm5wyqm692cQalipqCjz98EKpGds33comMIFJYD
VwT+EP0gQPB/NemXGN2FuQNk/L+lkyvXCeKUFioe5CV5pD0PLhPSMxCijCQuA0Rv
LalGNt4K87LwyfDvQaNK6yZGONZEgaTtZCxuFmj6FsCeXuk0nwj2
-----END CERTIFICATE-----
